target datalayout = "e-m:e-p270:32:32-p271:32:32-p272:64:64-i64:64-i128:128-f80:128-n8:16:32:64-S128"
target triple = "x86_64-pc-linux-gnu"

@bio_err = external global ptr, align 8
@.str.10 = private unnamed_addr constant [55 x i8] c"Private key does not match the certificate public key\0A\00", align 1
@.str.11 = private unnamed_addr constant [27 x i8] c"error setting certificate\0A\00", align 1
@.str.12 = private unnamed_addr constant [27 x i8] c"error setting private key\0A\00", align 1
@.str.13 = private unnamed_addr constant [33 x i8] c"error setting certificate chain\0A\00", align 1
@.str.14 = private unnamed_addr constant [34 x i8] c"error building certificate chain\0A\00", align 1

; Function Attrs: nounwind uwtable
define i32 @set_cert_key_stuff(ptr noundef %0, ptr noundef %1, ptr noundef %2, ptr noundef %3, i32 noundef %4) #0 {
  %6 = alloca i32, align 4
  %7 = alloca ptr, align 8
  %8 = alloca ptr, align 8
  %9 = alloca ptr, align 8
  %10 = alloca ptr, align 8
  %11 = alloca i32, align 4
  %12 = alloca i32, align 4
  %13 = alloca i32, align 4
  store ptr %0, ptr %7, align 8, !tbaa !19
  store ptr %1, ptr %8, align 8, !tbaa !10
  store ptr %2, ptr %9, align 8, !tbaa !23
  store ptr %3, ptr %10, align 8, !tbaa !25
  store i32 %4, ptr %11, align 4, !tbaa !3
  call void @llvm.lifetime.start.p0(i64 4, ptr %12) #10
  %14 = load ptr, ptr %10, align 8, !tbaa !25
  %15 = icmp ne ptr %14, null
  %16 = select i1 %15, i32 4, i32 0
  store i32 %16, ptr %12, align 4, !tbaa !3
  %17 = load ptr, ptr %8, align 8, !tbaa !10
  %18 = icmp eq ptr %17, null
  br i1 %18, label %19, label %20

19:                                               ; preds = %5
  store i32 1, ptr %6, align 4
  store i32 1, ptr %13, align 4
  br label %71

20:                                               ; preds = %5
  %21 = load ptr, ptr %7, align 8, !tbaa !19
  %22 = load ptr, ptr %8, align 8, !tbaa !10
  %23 = call i32 @SSL_CTX_use_certificate(ptr noundef %21, ptr noundef %22)
  %24 = icmp sle i32 %23, 0
  br i1 %24, label %25, label %29

25:                                               ; preds = %20
  %26 = load ptr, ptr @bio_err, align 8, !tbaa !14
  %27 = call i32 (ptr, ptr, ...) @BIO_printf(ptr noundef %26, ptr noundef @.str.11)
  %28 = load ptr, ptr @bio_err, align 8, !tbaa !14
  call void @ERR_print_errors(ptr noundef %28)
  store i32 0, ptr %6, align 4
  store i32 1, ptr %13, align 4
  br label %71

29:                                               ; preds = %20
  %30 = load ptr, ptr %7, align 8, !tbaa !19
  %31 = load ptr, ptr %9, align 8, !tbaa !23
  %32 = call i32 @SSL_CTX_use_PrivateKey(ptr noundef %30, ptr noundef %31)
  %33 = icmp sle i32 %32, 0
  br i1 %33, label %34, label %38

34:                                               ; preds = %29
  %35 = load ptr, ptr @bio_err, align 8, !tbaa !14
  %36 = call i32 (ptr, ptr, ...) @BIO_printf(ptr noundef %35, ptr noundef @.str.12)
  %37 = load ptr, ptr @bio_err, align 8, !tbaa !14
  call void @ERR_print_errors(ptr noundef %37)
  store i32 0, ptr %6, align 4
  store i32 1, ptr %13, align 4
  br label %71

38:                                               ; preds = %29
  %39 = load ptr, ptr %7, align 8, !tbaa !19
  %40 = call i32 @SSL_CTX_check_private_key(ptr noundef %39)
  %41 = icmp ne i32 %40, 0
  br i1 %41, label %45, label %42

42:                                               ; preds = %38
  %43 = load ptr, ptr @bio_err, align 8, !tbaa !14
  %44 = call i32 (ptr, ptr, ...) @BIO_printf(ptr noundef %43, ptr noundef @.str.10)
  store i32 0, ptr %6, align 4
  store i32 1, ptr %13, align 4
  br label %71

45:                                               ; preds = %38
  %46 = load ptr, ptr %10, align 8, !tbaa !25
  %47 = icmp ne ptr %46, null
  br i1 %47, label %48, label %57

48:                                               ; preds = %45
  %49 = load ptr, ptr %7, align 8, !tbaa !19
  %50 = load ptr, ptr %10, align 8, !tbaa !25
  %51 = call i64 @SSL_CTX_ctrl(ptr noundef %49, i32 noundef 88, i64 noundef 1, ptr noundef %50)
  %52 = icmp ne i64 %51, 0
  br i1 %52, label %57, label %53

53:                                               ; preds = %48
  %54 = load ptr, ptr @bio_err, align 8, !tbaa !14
  %55 = call i32 (ptr, ptr, ...) @BIO_printf(ptr noundef %54, ptr noundef @.str.13)
  %56 = load ptr, ptr @bio_err, align 8, !tbaa !14
  call void @ERR_print_errors(ptr noundef %56)
  store i32 0, ptr %6, align 4
  store i32 1, ptr %13, align 4
  br label %71

57:                                               ; preds = %48, %45
  %58 = load i32, ptr %11, align 4, !tbaa !3
  %59 = icmp ne i32 %58, 0
  br i1 %59, label %60, label %70

60:                                               ; preds = %57
  %61 = load ptr, ptr %7, align 8, !tbaa !19
  %62 = load i32, ptr %12, align 4, !tbaa !3
  %63 = sext i32 %62 to i64
  %64 = call i64 @SSL_CTX_ctrl(ptr noundef %61, i32 noundef 105, i64 noundef %63, ptr noundef null)
  %65 = icmp ne i64 %64, 0
  br i1 %65, label %70, label %66

66:                                               ; preds = %60
  %67 = load ptr, ptr @bio_err, align 8, !tbaa !14
  %68 = call i32 (ptr, ptr, ...) @BIO_printf(ptr noundef %67, ptr noundef @.str.14)
  %69 = load ptr, ptr @bio_err, align 8, !tbaa !14
  call void @ERR_print_errors(ptr noundef %69)
  store i32 0, ptr %6, align 4
  store i32 1, ptr %13, align 4
  br label %71

70:                                               ; preds = %60, %57
  store i32 1, ptr %6, align 4
  store i32 1, ptr %13, align 4
  br label %71

71:                                               ; preds = %70, %66, %53, %42, %34, %25, %19
  call void @llvm.lifetime.end.p0(i64 4, ptr %12) #10
  %72 = load i32, ptr %6, align 4
  ret i32 %72
}