; Function Attrs: nounwind uwtable
define range(i32 0, 2) i32 @set_cert_key_stuff(ptr noundef %0, ptr noundef %1, ptr noundef %2, ptr noundef %3, i32 noundef %4) local_unnamed_addr #0 {
  %.not = icmp eq ptr %3, null
  %6 = icmp eq ptr %1, null
  br i1 %6, label %41, label %7

7:                                                ; preds = %5
  %8 = tail call i32 @SSL_CTX_use_certificate(ptr noundef %0, ptr noundef nonnull %1) #6
  %9 = icmp slt i32 %8, 1
  br i1 %9, label %10, label %14

10:                                               ; preds = %7
  %11 = load ptr, ptr @bio_err, align 8, !tbaa !8
  %12 = tail call i32 (ptr, ptr, ...) @BIO_printf(ptr noundef %11, ptr noundef nonnull @.str.11) #6
  %13 = load ptr, ptr @bio_err, align 8, !tbaa !8
  tail call void @ERR_print_errors(ptr noundef %13) #6
  br label %41

14:                                               ; preds = %7
  %15 = tail call i32 @SSL_CTX_use_PrivateKey(ptr noundef %0, ptr noundef %2) #6
  %16 = icmp slt i32 %15, 1
  br i1 %16, label %17, label %21

17:                                               ; preds = %14
  %18 = load ptr, ptr @bio_err, align 8, !tbaa !8
  %19 = tail call i32 (ptr, ptr, ...) @BIO_printf(ptr noundef %18, ptr noundef nonnull @.str.12) #6
  %20 = load ptr, ptr @bio_err, align 8, !tbaa !8
  tail call void @ERR_print_errors(ptr noundef %20) #6
  br label %41

21:                                               ; preds = %14
  %22 = tail call i32 @SSL_CTX_check_private_key(ptr noundef %0) #6
  %.not15 = icmp eq i32 %22, 0
  br i1 %.not15, label %23, label %26

23:                                               ; preds = %21
  %24 = load ptr, ptr @bio_err, align 8, !tbaa !8
  %25 = tail call i32 (ptr, ptr, ...) @BIO_printf(ptr noundef %24, ptr noundef nonnull @.str.10) #6
  br label %41

26:                                               ; preds = %21
  br i1 %.not, label %33, label %27

27:                                               ; preds = %26
  %28 = tail call i64 @SSL_CTX_ctrl(ptr noundef %0, i32 noundef 88, i64 noundef 1, ptr noundef nonnull %3) #6
  %.not16 = icmp eq i64 %28, 0
  br i1 %.not16, label %29, label %33

29:                                               ; preds = %27
  %30 = load ptr, ptr @bio_err, align 8, !tbaa !8
  %31 = tail call i32 (ptr, ptr, ...) @BIO_printf(ptr noundef %30, ptr noundef nonnull @.str.13) #6
  %32 = load ptr, ptr @bio_err, align 8, !tbaa !8
  tail call void @ERR_print_errors(ptr noundef %32) #6
  br label %41

33:                                               ; preds = %27, %26
  %.not17 = icmp eq i32 %4, 0
  br i1 %.not17, label %41, label %34

34:                                               ; preds = %33
  %35 = select i1 %.not, i64 0, i64 4
  %36 = tail call i64 @SSL_CTX_ctrl(ptr noundef %0, i32 noundef 105, i64 noundef %35, ptr noundef null) #6
  %.not18 = icmp eq i64 %36, 0
  br i1 %.not18, label %37, label %41

37:                                               ; preds = %34
  %38 = load ptr, ptr @bio_err, align 8, !tbaa !8
  %39 = tail call i32 (ptr, ptr, ...) @BIO_printf(ptr noundef %38, ptr noundef nonnull @.str.14) #6
  %40 = load ptr, ptr @bio_err, align 8, !tbaa !8
  tail call void @ERR_print_errors(ptr noundef %40) #6
  br label %41

41:                                               ; preds = %33, %34, %5, %37, %29, %23, %17, %10
  %.0 = phi i32 [ 0, %10 ], [ 0, %17 ], [ 0, %37 ], [ 0, %29 ], [ 0, %23 ], [ 1, %5 ], [ 1, %34 ], [ 1, %33 ]
  ret i32 %.0
}